; Function Attrs: null_pointer_is_valid sspstrong uwtable
define internal fastcc void @dissect_knet(ptr noundef %0, ptr noundef readonly captures(none) %1, ptr noundef %2, i32 noundef range(i32 1000, 1002) %3) unnamed_addr #0 {
  %5 = alloca i32, align 4
  call void @llvm.lifetime.start.p0(i64 4, ptr nonnull %5) #4
  store i32 0, ptr %5, align 4
  %6 = load i32, ptr @proto_knet, align 4
  %7 = tail call ptr @proto_tree_add_item(ptr noundef %2, i32 noundef %6, ptr noundef %0, i32 noundef 0, i32 noundef -1, i32 noundef 0)
  %8 = load i32, ptr @ett_knet_main, align 4
  %9 = tail call ptr @proto_item_add_subtree(ptr noundef %7, i32 noundef %8)
  %10 = load i32, ptr @hf_knet_message_tree, align 4
  %11 = tail call ptr @proto_tree_add_item(ptr noundef %9, i32 noundef %10, ptr noundef %0, i32 noundef 0, i32 noundef -1, i32 noundef 0)
  %12 = load i32, ptr @ett_knet_message, align 4
  %13 = tail call ptr @proto_item_add_subtree(ptr noundef %11, i32 noundef %12)
  %14 = call fastcc i32 @dissect_content_length_vle(ptr noundef %0, ptr noundef nonnull %5, ptr noundef %13)
  %15 = icmp eq i32 %3, 1000
  %.v = select i1 %15, i32 1, i32 2
  %16 = add nuw i32 %14, %.v
  tail call void @proto_item_set_len(ptr noundef %11, i32 noundef %16)
  %17 = load i32, ptr %5, align 4
  %18 = tail call zeroext i8 @tvb_get_uint8(ptr noundef %0, i32 noundef %17)
  %19 = zext i8 %18 to i32
  %switch.i = icmp ugt i8 %18, -6
  %..i = select i1 %switch.i, i32 4, i32 1
  %20 = load i32, ptr @hf_knet_messageid, align 4
  %21 = tail call ptr @val_to_str_const(i32 noundef %19, ptr noundef nonnull @packettypenames, ptr noundef nonnull @.str.57)
  %22 = tail call ptr (ptr, i32, ptr, i32, i32, i32, ptr, ...) @proto_tree_add_uint_format_value(ptr noundef %13, i32 noundef %20, ptr noundef %0, i32 noundef %17, i32 noundef %..i, i32 noundef %19, ptr noundef nonnull @.str.56, ptr noundef %21, i32 noundef %19)
  %23 = getelementptr inbounds nuw i8, ptr %1, i64 8
  %24 = load ptr, ptr %23, align 8
  %25 = tail call ptr @val_to_str_const(i32 noundef %19, ptr noundef nonnull @packettypenames, ptr noundef nonnull @.str.59)
  tail call void (ptr, i32, ptr, ptr, ...) @col_append_sep_fstr(ptr noundef %24, i32 noundef 25, ptr noundef nonnull @.str.58, ptr noundef nonnull @.str.56, ptr noundef %25, i32 noundef %19)
  %26 = add i32 %..i, %17
  tail call fastcc void @dissect_payload(ptr noundef %0, i32 noundef %26, i32 noundef %19, ptr noundef %13, i32 noundef %14)
  %27 = load ptr, ptr %23, align 8
  tail call void @col_set_fence(ptr noundef %27, i32 noundef 25)
  call void @llvm.lifetime.end.p0(i64 4, ptr nonnull %5) #4
  ret void
}